target datalayout = "e-m:e-p270:32:32-p271:32:32-p272:64:64-i64:64-i128:128-f80:128-n8:16:32:64-S128"
target triple = "x86_64-pc-linux-gnu"

; Function Attrs: nounwind uwtable
define i32 @ossl_dsa_check_key(ptr noundef %0, i32 noundef %1) #0 {
  %3 = alloca i32, align 4
  %4 = alloca ptr, align 8
  %5 = alloca i32, align 4
  %6 = alloca i64, align 8
  %7 = alloca i64, align 8
  %8 = alloca ptr, align 8
  %9 = alloca ptr, align 8
  %10 = alloca i32, align 4
  store ptr %0, ptr %4, align 8, !tbaa !18
  store i32 %1, ptr %5, align 4, !tbaa !8
  call void @llvm.lifetime.start.p0(i64 8, ptr %6) #3
  call void @llvm.lifetime.start.p0(i64 8, ptr %7) #3
  call void @llvm.lifetime.start.p0(i64 8, ptr %8) #3
  call void @llvm.lifetime.start.p0(i64 8, ptr %9) #3
  %11 = load ptr, ptr %4, align 8, !tbaa !18
  %12 = icmp eq ptr %11, null
  br i1 %12, label %13, label %14

13:                                               ; preds = %2
  store i32 0, ptr %3, align 4
  store i32 1, ptr %10, align 4
  br label %68

14:                                               ; preds = %2
  %15 = load ptr, ptr %4, align 8, !tbaa !18
  %16 = call ptr @DSA_get0_p(ptr noundef %15)
  store ptr %16, ptr %8, align 8, !tbaa !20
  %17 = load ptr, ptr %4, align 8, !tbaa !18
  %18 = call ptr @DSA_get0_q(ptr noundef %17)
  store ptr %18, ptr %9, align 8, !tbaa !20
  %19 = load ptr, ptr %8, align 8, !tbaa !20
  %20 = icmp eq ptr %19, null
  br i1 %20, label %24, label %21

21:                                               ; preds = %14
  %22 = load ptr, ptr %9, align 8, !tbaa !20
  %23 = icmp eq ptr %22, null
  br i1 %23, label %24, label %25

24:                                               ; preds = %21, %14
  store i32 0, ptr %3, align 4
  store i32 1, ptr %10, align 4
  br label %68

25:                                               ; preds = %21
  %26 = load ptr, ptr %8, align 8, !tbaa !20
  %27 = call i32 @BN_num_bits(ptr noundef %26)
  %28 = sext i32 %27 to i64
  store i64 %28, ptr %6, align 8, !tbaa !12
  %29 = load ptr, ptr %9, align 8, !tbaa !20
  %30 = call i32 @BN_num_bits(ptr noundef %29)
  %31 = sext i32 %30 to i64
  store i64 %31, ptr %7, align 8, !tbaa !12
  %32 = load i32, ptr %5, align 4, !tbaa !8
  %33 = icmp ne i32 %32, 0
  br i1 %33, label %49, label %34

34:                                               ; preds = %25
  %35 = load i64, ptr %6, align 8, !tbaa !12
  %36 = icmp ult i64 %35, 512
  br i1 %36, label %40, label %37

37:                                               ; preds = %34
  %38 = load i64, ptr %7, align 8, !tbaa !12
  %39 = icmp ult i64 %38, 160
  br i1 %39, label %40, label %41

40:                                               ; preds = %37, %34
  store i32 0, ptr %3, align 4
  store i32 1, ptr %10, align 4
  br label %68

41:                                               ; preds = %37
  %42 = load i64, ptr %6, align 8, !tbaa !12
  %43 = icmp ult i64 %42, 2048
  br i1 %43, label %47, label %44

44:                                               ; preds = %41
  %45 = load i64, ptr %7, align 8, !tbaa !12
  %46 = icmp ult i64 %45, 224
  br i1 %46, label %47, label %48

47:                                               ; preds = %44, %41
  store i32 1, ptr %3, align 4
  store i32 1, ptr %10, align 4
  br label %68

48:                                               ; preds = %44
  br label %49

49:                                               ; preds = %48, %25
  %50 = load i64, ptr %6, align 8, !tbaa !12
  %51 = icmp eq i64 %50, 2048
  br i1 %51, label %52, label %59

52:                                               ; preds = %49
  %53 = load i64, ptr %7, align 8, !tbaa !12
  %54 = icmp eq i64 %53, 224
  br i1 %54, label %58, label %55

55:                                               ; preds = %52
  %56 = load i64, ptr %7, align 8, !tbaa !12
  %57 = icmp eq i64 %56, 256
  br i1 %57, label %58, label %59

58:                                               ; preds = %55, %52
  store i32 1, ptr %3, align 4
  store i32 1, ptr %10, align 4
  br label %68

59:                                               ; preds = %55, %49
  %60 = load i64, ptr %6, align 8, !tbaa !12
  %61 = icmp eq i64 %60, 3072
  br i1 %61, label %62, label %65

62:                                               ; preds = %59
  %63 = load i64, ptr %7, align 8, !tbaa !12
  %64 = icmp eq i64 %63, 256
  br label %65

65:                                               ; preds = %62, %59
  %66 = phi i1 [ false, %59 ], [ %64, %62 ]
  %67 = zext i1 %66 to i32
  store i32 %67, ptr %3, align 4
  store i32 1, ptr %10, align 4
  br label %68

68:                                               ; preds = %65, %58, %47, %40, %24, %13
  call void @llvm.lifetime.end.p0(i64 8, ptr %9) #3
  call void @llvm.lifetime.end.p0(i64 8, ptr %8) #3
  call void @llvm.lifetime.end.p0(i64 8, ptr %7) #3
  call void @llvm.lifetime.end.p0(i64 8, ptr %6) #3
  %69 = load i32, ptr %3, align 4
  ret i32 %69
}