; Function Attrs: nounwind uwtable
define range(i32 0, 2) i32 @ossl_dsa_check_key(ptr noundef %0, i32 noundef %1) local_unnamed_addr #0 {
  %3 = icmp eq ptr %0, null
  br i1 %3, label %26, label %4

4:                                                ; preds = %2
  %5 = tail call ptr @DSA_get0_p(ptr noundef nonnull %0) #3
  %6 = tail call ptr @DSA_get0_q(ptr noundef nonnull %0) #3
  %7 = icmp eq ptr %5, null
  %8 = icmp eq ptr %6, null
  %or.cond = select i1 %7, i1 true, i1 %8
  br i1 %or.cond, label %26, label %9

9:                                                ; preds = %4
  %10 = tail call i32 @BN_num_bits(ptr noundef nonnull %5) #3
  %11 = tail call i32 @BN_num_bits(ptr noundef nonnull %6) #3
  %.not = icmp eq i32 %1, 0
  br i1 %.not, label %12, label %18

12:                                               ; preds = %9
  %13 = icmp ult i32 %10, 512
  %14 = icmp ult i32 %11, 160
  %or.cond3 = select i1 %13, i1 true, i1 %14
  br i1 %or.cond3, label %26, label %15

15:                                               ; preds = %12
  %16 = icmp ult i32 %10, 2048
  %17 = icmp ult i32 %11, 224
  %or.cond5 = select i1 %16, i1 true, i1 %17
  br i1 %or.cond5, label %26, label %18

18:                                               ; preds = %15, %9
  %19 = icmp eq i32 %10, 2048
  br i1 %19, label %20, label %21

20:                                               ; preds = %18
  switch i32 %11, label %21 [
    i32 256, label %26
    i32 224, label %26
  ]

21:                                               ; preds = %20, %18
  %22 = icmp eq i32 %10, 3072
  %23 = icmp eq i32 %11, 256
  %24 = select i1 %22, i1 %23, i1 false
  %25 = zext i1 %24 to i32
  br label %26

26:                                               ; preds = %20, %20, %15, %12, %4, %2, %21
  %.0 = phi i32 [ %25, %21 ], [ 0, %2 ], [ 0, %4 ], [ 0, %12 ], [ 1, %15 ], [ 1, %20 ], [ 1, %20 ]
  ret i32 %.0
}